; Function Attrs: nounwind uwtable
define internal fastcc range(i32 -27648, 1) i32 @ssl_check_server_ecdh_params(ptr noundef %0) unnamed_addr #0 {
  %2 = getelementptr inbounds nuw i8, ptr %0, i64 112
  %3 = load ptr, ptr %2, align 8, !tbaa !44
  %4 = getelementptr inbounds nuw i8, ptr %3, i64 284
  %5 = load i32, ptr %4, align 4, !tbaa !130
  %6 = tail call zeroext i16 @mbedtls_ssl_get_tls_id_from_ecp_group_id(i32 noundef %5) #14
  %7 = icmp eq i16 %6, 0
  br i1 %7, label %8, label %9

8:                                                ; preds = %1
  tail call void (ptr, i32, ptr, i32, ptr, ...) @mbedtls_debug_print_msg(ptr noundef nonnull %0, i32 noundef 1, ptr noundef nonnull @.str, i32 noundef 1801, ptr noundef nonnull @.str.83) #14
  br label %15

9:                                                ; preds = %1
  %10 = tail call ptr @mbedtls_ssl_get_curve_name_from_tls_id(i16 noundef zeroext %6) #14
  tail call void (ptr, i32, ptr, i32, ptr, ...) @mbedtls_debug_print_msg(ptr noundef nonnull %0, i32 noundef 2, ptr noundef nonnull @.str, i32 noundef 1806, ptr noundef nonnull @.str.92, ptr noundef %10) #14
  %11 = tail call i32 @mbedtls_ssl_check_curve(ptr noundef nonnull %0, i32 noundef %5) #14
  %.not = icmp eq i32 %11, 0
  br i1 %.not, label %12, label %15

12:                                               ; preds = %9
  %13 = load ptr, ptr %2, align 8, !tbaa !44
  %14 = getelementptr inbounds nuw i8, ptr %13, i64 280
  tail call void @mbedtls_debug_printf_ecdh(ptr noundef nonnull %0, i32 noundef 3, ptr noundef nonnull @.str, i32 noundef 1813, ptr noundef nonnull %14, i32 noundef 1) #14
  br label %15

15:                                               ; preds = %9, %12, %8
  %.0 = phi i32 [ -27648, %8 ], [ 0, %12 ], [ -1, %9 ]
  ret i32 %.0
}